target datalayout = "e-m:e-p270:32:32-p271:32:32-p272:64:64-i64:64-i128:128-f80:128-n8:16:32:64-S128"
target triple = "x86_64-pc-linux-gnu"

%struct.portalhashent = type { [64 x i8], ptr }
%struct.PortalData = type { ptr, ptr, ptr, ptr, ptr, i32, i32, i32, ptr, i32, %struct.QueryCompletion, ptr, ptr, ptr, ptr, i32, i32, i32, i8, i8, ptr, ptr, ptr, ptr, ptr, ptr, ptr, i8, i8, i64, i64, i8 }
%struct.QueryCompletion = type { i32, i64 }
%struct.HASH_SEQ_STATUS = type { ptr, i32, ptr, i8, i32 }

@TopPortalContext = internal global ptr null, align 8
@PortalHashTable = internal global ptr null, align 8
@.str.3 = private unnamed_addr constant [12 x i8] c"portalmem.c\00", align 1
@.str.10 = private unnamed_addr constant [18 x i8] c"PortalHoldContext\00", align 1
@work_mem = external global i32, align 4
@.str.17 = private unnamed_addr constant [39 x i8] c"cannot commit while a portal is pinned\00", align 1
@__func__.PreCommit_Portals = private unnamed_addr constant [18 x i8] c"PreCommit_Portals\00", align 1
@.str.18 = private unnamed_addr constant [65 x i8] c"cannot PREPARE a transaction that has created a cursor WITH HOLD\00", align 1
@CurrentMemoryContext = external global ptr, align 8

; Function Attrs: inlinehint nounwind uwtable
define internal ptr @MemoryContextSwitchTo(ptr noundef %0) #5 {
  %2 = alloca ptr, align 8
  %3 = alloca ptr, align 8
  store ptr %0, ptr %2, align 8
  call void @llvm.lifetime.start.p0(i64 8, ptr %3) #6
  %4 = load ptr, ptr @CurrentMemoryContext, align 8
  store ptr %4, ptr %3, align 8
  %5 = load ptr, ptr %2, align 8
  store ptr %5, ptr @CurrentMemoryContext, align 8
  %6 = load ptr, ptr %3, align 8
  call void @llvm.lifetime.end.p0(i64 8, ptr %3) #6
  ret ptr %6
}

; Function Attrs: nounwind uwtable
define internal void @PortalReleaseCachedPlan(ptr noundef %0) #0 {
  %2 = alloca ptr, align 8
  store ptr %0, ptr %2, align 8
  %3 = load ptr, ptr %2, align 8
  %4 = getelementptr inbounds nuw %struct.PortalData, ptr %3, i32 0, i32 12
  %5 = load ptr, ptr %4, align 8
  %6 = icmp ne ptr %5, null
  br i1 %6, label %7, label %15

7:                                                ; preds = %1
  %8 = load ptr, ptr %2, align 8
  %9 = getelementptr inbounds nuw %struct.PortalData, ptr %8, i32 0, i32 12
  %10 = load ptr, ptr %9, align 8
  call void @ReleaseCachedPlan(ptr noundef %10, ptr noundef null)
  %11 = load ptr, ptr %2, align 8
  %12 = getelementptr inbounds nuw %struct.PortalData, ptr %11, i32 0, i32 12
  store ptr null, ptr %12, align 8
  %13 = load ptr, ptr %2, align 8
  %14 = getelementptr inbounds nuw %struct.PortalData, ptr %13, i32 0, i32 11
  store ptr null, ptr %14, align 8
  br label %15

15:                                               ; preds = %7, %1
  ret void
}

; Function Attrs: nounwind uwtable
define dso_local void @PortalCreateHoldStore(ptr noundef %0) #0 {
  %2 = alloca ptr, align 8
  %3 = alloca ptr, align 8
  %4 = alloca i32, align 4
  store ptr %0, ptr %2, align 8
  call void @llvm.lifetime.start.p0(i64 8, ptr %3) #6
  br label %5

5:                                                ; preds = %1
  br label %6

6:                                                ; preds = %5
  br label %7

7:                                                ; preds = %6
  store i32 1, ptr %4, align 4
  %8 = load ptr, ptr @TopPortalContext, align 8
  %9 = call ptr @AllocSetContextCreateInternal(ptr noundef %8, ptr noundef @.str.10, i64 noundef 0, i64 noundef 8192, i64 noundef 8388608)
  %10 = load ptr, ptr %2, align 8
  %11 = getelementptr inbounds nuw %struct.PortalData, ptr %10, i32 0, i32 25
  store ptr %9, ptr %11, align 8
  %12 = load ptr, ptr %2, align 8
  %13 = getelementptr inbounds nuw %struct.PortalData, ptr %12, i32 0, i32 25
  %14 = load ptr, ptr %13, align 8
  %15 = call ptr @MemoryContextSwitchTo(ptr noundef %14)
  store ptr %15, ptr %3, align 8
  %16 = load ptr, ptr %2, align 8
  %17 = getelementptr inbounds nuw %struct.PortalData, ptr %16, i32 0, i32 16
  %18 = load i32, ptr %17, align 4
  %19 = and i32 %18, 2
  %20 = icmp ne i32 %19, 0
  %21 = load i32, ptr @work_mem, align 4
  %22 = call ptr @tuplestore_begin_heap(i1 noundef zeroext %20, i1 noundef zeroext true, i32 noundef %21)
  %23 = load ptr, ptr %2, align 8
  %24 = getelementptr inbounds nuw %struct.PortalData, ptr %23, i32 0, i32 24
  store ptr %22, ptr %24, align 8
  %25 = load ptr, ptr %3, align 8
  %26 = call ptr @MemoryContextSwitchTo(ptr noundef %25)
  call void @llvm.lifetime.end.p0(i64 8, ptr %3) #6
  ret void
}

; Function Attrs: nounwind uwtable
define internal void @HoldPortal(ptr noundef %0) #0 {
  %2 = alloca ptr, align 8
  store ptr %0, ptr %2, align 8
  %3 = load ptr, ptr %2, align 8
  call void @PortalCreateHoldStore(ptr noundef %3)
  %4 = load ptr, ptr %2, align 8
  call void @PersistHoldablePortal(ptr noundef %4)
  %5 = load ptr, ptr %2, align 8
  call void @PortalReleaseCachedPlan(ptr noundef %5)
  %6 = load ptr, ptr %2, align 8
  %7 = getelementptr inbounds nuw %struct.PortalData, ptr %6, i32 0, i32 3
  store ptr null, ptr %7, align 8
  %8 = load ptr, ptr %2, align 8
  %9 = getelementptr inbounds nuw %struct.PortalData, ptr %8, i32 0, i32 5
  store i32 0, ptr %9, align 8
  %10 = load ptr, ptr %2, align 8
  %11 = getelementptr inbounds nuw %struct.PortalData, ptr %10, i32 0, i32 6
  store i32 0, ptr %11, align 4
  %12 = load ptr, ptr %2, align 8
  %13 = getelementptr inbounds nuw %struct.PortalData, ptr %12, i32 0, i32 7
  store i32 0, ptr %13, align 8
  ret void
}

; Function Attrs: nounwind uwtable
define dso_local zeroext i1 @PreCommit_Portals(i1 noundef zeroext %0) #0 {
  %2 = alloca i8, align 1
  %3 = alloca i8, align 1
  %4 = alloca %struct.HASH_SEQ_STATUS, align 8
  %5 = alloca ptr, align 8
  %6 = alloca ptr, align 8
  %7 = alloca i32, align 4
  %8 = zext i1 %0 to i8
  store i8 %8, ptr %2, align 1
  call void @llvm.lifetime.start.p0(i64 1, ptr %3) #6
  store i8 0, ptr %3, align 1
  call void @llvm.lifetime.start.p0(i64 32, ptr %4) #6
  call void @llvm.lifetime.start.p0(i64 8, ptr %5) #6
  %9 = load ptr, ptr @PortalHashTable, align 8
  call void @hash_seq_init(ptr noundef %4, ptr noundef %9)
  br label %10

10:                                               ; preds = %113, %111, %1
  %11 = call ptr @hash_seq_search(ptr noundef %4)
  store ptr %11, ptr %5, align 8
  %12 = icmp ne ptr %11, null
  br i1 %12, label %13, label %114

13:                                               ; preds = %10
  call void @llvm.lifetime.start.p0(i64 8, ptr %6) #6
  %14 = load ptr, ptr %5, align 8
  %15 = getelementptr inbounds nuw %struct.portalhashent, ptr %14, i32 0, i32 1
  %16 = load ptr, ptr %15, align 8
  store ptr %16, ptr %6, align 8
  %17 = load ptr, ptr %6, align 8
  %18 = getelementptr inbounds nuw %struct.PortalData, ptr %17, i32 0, i32 18
  %19 = load i8, ptr %18, align 4, !range !4, !noundef !5
  %20 = trunc i8 %19 to i1
  br i1 %20, label %21, label %37

21:                                               ; preds = %13
  %22 = load ptr, ptr %6, align 8
  %23 = getelementptr inbounds nuw %struct.PortalData, ptr %22, i32 0, i32 19
  %24 = load i8, ptr %23, align 1, !range !4, !noundef !5
  %25 = trunc i8 %24 to i1
  br i1 %25, label %37, label %26

26:                                               ; preds = %21
  br label %27

27:                                               ; preds = %26
  br i1 true, label %28, label %30

28:                                               ; preds = %27
  %29 = call zeroext i1 @errstart_cold(i32 noundef 21, ptr noundef null) #7
  br i1 %29, label %32, label %34

30:                                               ; preds = %27
  %31 = call zeroext i1 @errstart(i32 noundef 21, ptr noundef null)
  br i1 %31, label %32, label %34

32:                                               ; preds = %30, %28
  %33 = call i32 (ptr, ...) @errmsg_internal(ptr noundef @.str.17)
  call void @errfinish(ptr noundef @.str.3, i32 noundef 695, ptr noundef @__func__.PreCommit_Portals)
  br label %34

34:                                               ; preds = %32, %30, %28
  unreachable

35:                                               ; No predecessors!
  br label %36

36:                                               ; preds = %35
  br label %37

37:                                               ; preds = %36, %21, %13
  %38 = load ptr, ptr %6, align 8
  %39 = getelementptr inbounds nuw %struct.PortalData, ptr %38, i32 0, i32 17
  %40 = load i32, ptr %39, align 8
  %41 = icmp eq i32 %40, 3
  br i1 %41, label %42, label %67

42:                                               ; preds = %37
  %43 = load ptr, ptr %6, align 8
  %44 = getelementptr inbounds nuw %struct.PortalData, ptr %43, i32 0, i32 26
  %45 = load ptr, ptr %44, align 8
  %46 = icmp ne ptr %45, null
  br i1 %46, label %47, label %62

47:                                               ; preds = %42
  %48 = load ptr, ptr %6, align 8
  %49 = getelementptr inbounds nuw %struct.PortalData, ptr %48, i32 0, i32 3
  %50 = load ptr, ptr %49, align 8
  %51 = icmp ne ptr %50, null
  br i1 %51, label %52, label %59

52:                                               ; preds = %47
  %53 = load ptr, ptr %6, align 8
  %54 = getelementptr inbounds nuw %struct.PortalData, ptr %53, i32 0, i32 26
  %55 = load ptr, ptr %54, align 8
  %56 = load ptr, ptr %6, align 8
  %57 = getelementptr inbounds nuw %struct.PortalData, ptr %56, i32 0, i32 3
  %58 = load ptr, ptr %57, align 8
  call void @UnregisterSnapshotFromOwner(ptr noundef %55, ptr noundef %58)
  br label %59

59:                                               ; preds = %52, %47
  %60 = load ptr, ptr %6, align 8
  %61 = getelementptr inbounds nuw %struct.PortalData, ptr %60, i32 0, i32 26
  store ptr null, ptr %61, align 8
  br label %62

62:                                               ; preds = %59, %42
  %63 = load ptr, ptr %6, align 8
  %64 = getelementptr inbounds nuw %struct.PortalData, ptr %63, i32 0, i32 3
  store ptr null, ptr %64, align 8
  %65 = load ptr, ptr %6, align 8
  %66 = getelementptr inbounds nuw %struct.PortalData, ptr %65, i32 0, i32 23
  store ptr null, ptr %66, align 8
  store i32 2, ptr %7, align 4
  br label %111, !llvm.loop !9

67:                                               ; preds = %37
  %68 = load ptr, ptr %6, align 8
  %69 = getelementptr inbounds nuw %struct.PortalData, ptr %68, i32 0, i32 16
  %70 = load i32, ptr %69, align 4
  %71 = and i32 %70, 32
  %72 = icmp ne i32 %71, 0
  br i1 %72, label %73, label %100

73:                                               ; preds = %67
  %74 = load ptr, ptr %6, align 8
  %75 = getelementptr inbounds nuw %struct.PortalData, ptr %74, i32 0, i32 5
  %76 = load i32, ptr %75, align 8
  %77 = icmp ne i32 %76, 0
  br i1 %77, label %78, label %100

78:                                               ; preds = %73
  %79 = load ptr, ptr %6, align 8
  %80 = getelementptr inbounds nuw %struct.PortalData, ptr %79, i32 0, i32 17
  %81 = load i32, ptr %80, align 8
  %82 = icmp eq i32 %81, 2
  br i1 %82, label %83, label %100

83:                                               ; preds = %78
  %84 = load i8, ptr %2, align 1, !range !4, !noundef !5
  %85 = trunc i8 %84 to i1
  br i1 %85, label %86, label %98

86:                                               ; preds = %83
  br label %87

87:                                               ; preds = %86
  br i1 true, label %88, label %90

88:                                               ; preds = %87
  %89 = call zeroext i1 @errstart_cold(i32 noundef 21, ptr noundef null) #7
  br i1 %89, label %92, label %95

90:                                               ; preds = %87
  %91 = call zeroext i1 @errstart(i32 noundef 21, ptr noundef null)
  br i1 %91, label %92, label %95

92:                                               ; preds = %90, %88
  %93 = call i32 @errcode(i32 noundef 1088)
  %94 = call i32 (ptr, ...) @errmsg(ptr noundef @.str.18)
  call void @errfinish(ptr noundef @.str.3, i32 noundef 738, ptr noundef @__func__.PreCommit_Portals)
  br label %95

95:                                               ; preds = %92, %90, %88
  unreachable

96:                                               ; No predecessors!
  br label %97

97:                                               ; preds = %96
  br label %98

98:                                               ; preds = %97, %83
  %99 = load ptr, ptr %6, align 8
  call void @HoldPortal(ptr noundef %99)
  store i8 1, ptr %3, align 1
  br label %109

100:                                              ; preds = %78, %73, %67
  %101 = load ptr, ptr %6, align 8
  %102 = getelementptr inbounds nuw %struct.PortalData, ptr %101, i32 0, i32 5
  %103 = load i32, ptr %102, align 8
  %104 = icmp eq i32 %103, 0
  br i1 %104, label %105, label %106

105:                                              ; preds = %100
  store i32 2, ptr %7, align 4
  br label %111, !llvm.loop !9

106:                                              ; preds = %100
  %107 = load ptr, ptr %6, align 8
  call void @PortalDrop(ptr noundef %107, i1 noundef zeroext true)
  store i8 1, ptr %3, align 1
  br label %108

108:                                              ; preds = %106
  br label %109

109:                                              ; preds = %108, %98
  call void @hash_seq_term(ptr noundef %4)
  %110 = load ptr, ptr @PortalHashTable, align 8
  call void @hash_seq_init(ptr noundef %4, ptr noundef %110)
  store i32 0, ptr %7, align 4
  br label %111

111:                                              ; preds = %109, %105, %62
  call void @llvm.lifetime.end.p0(i64 8, ptr %6) #6
  %112 = load i32, ptr %7, align 4
  switch i32 %112, label %117 [
    i32 0, label %113
    i32 2, label %10
  ]

113:                                              ; preds = %111
  br label %10, !llvm.loop !9

114:                                              ; preds = %10
  %115 = load i8, ptr %3, align 1, !range !4, !noundef !5
  %116 = trunc i8 %115 to i1
  store i32 1, ptr %7, align 4
  call void @llvm.lifetime.end.p0(i64 8, ptr %5) #6
  call void @llvm.lifetime.end.p0(i64 32, ptr %4) #6
  call void @llvm.lifetime.end.p0(i64 1, ptr %3) #6
  ret i1 %116

117:                                              ; preds = %111
  unreachable
}