; Function Attrs: nounwind uwtable
define dso_local zeroext i1 @PreCommit_Portals(i1 noundef zeroext %0) local_unnamed_addr #0 {
  %2 = alloca %struct.HASH_SEQ_STATUS, align 8
  call void @llvm.lifetime.start.p0(i64 32, ptr nonnull %2) #8
  %3 = load ptr, ptr @PortalHashTable, align 8
  call void @hash_seq_init(ptr noundef nonnull %2, ptr noundef %3) #8
  %4 = call ptr @hash_seq_search(ptr noundef nonnull %2) #8
  %.not28 = icmp eq ptr %4, null
  br i1 %.not28, label %._crit_edge, label %.lr.ph

.lr.ph:                                           ; preds = %1, %66
  %5 = phi ptr [ %67, %66 ], [ %4, %1 ]
  %.029 = phi i1 [ %.1, %66 ], [ false, %1 ]
  %6 = getelementptr inbounds nuw i8, ptr %5, i64 64
  %7 = load ptr, ptr %6, align 8
  %8 = getelementptr inbounds nuw i8, ptr %7, i64 132
  %9 = load i8, ptr %8, align 4, !range !4, !noundef !5
  %10 = trunc nuw i8 %9 to i1
  br i1 %10, label %11, label %18

11:                                               ; preds = %.lr.ph
  %12 = getelementptr inbounds nuw i8, ptr %7, i64 133
  %13 = load i8, ptr %12, align 1, !range !4, !noundef !5
  %14 = trunc nuw i8 %13 to i1
  br i1 %14, label %18, label %15

15:                                               ; preds = %11
  %16 = call zeroext i1 @errstart_cold(i32 noundef 21, ptr noundef null) #9
  call void @llvm.assume(i1 %16)
  %17 = call i32 (ptr, ...) @errmsg_internal(ptr noundef nonnull @.str.17) #8
  call void @errfinish(ptr noundef nonnull @.str.3, i32 noundef 695, ptr noundef nonnull @__func__.PreCommit_Portals) #8
  unreachable

18:                                               ; preds = %11, %.lr.ph
  %19 = getelementptr inbounds nuw i8, ptr %7, i64 128
  %20 = load i32, ptr %19, align 8
  %21 = icmp eq i32 %20, 3
  br i1 %21, label %22, label %33

22:                                               ; preds = %18
  %23 = getelementptr inbounds nuw i8, ptr %7, i64 184
  %24 = load ptr, ptr %23, align 8
  %.not24 = icmp eq ptr %24, null
  br i1 %.not24, label %30, label %25

25:                                               ; preds = %22
  %26 = getelementptr inbounds nuw i8, ptr %7, i64 24
  %27 = load ptr, ptr %26, align 8
  %.not25 = icmp eq ptr %27, null
  br i1 %.not25, label %29, label %28

28:                                               ; preds = %25
  call void @UnregisterSnapshotFromOwner(ptr noundef nonnull %24, ptr noundef nonnull %27) #8
  br label %29

29:                                               ; preds = %28, %25
  store ptr null, ptr %23, align 8
  br label %30

30:                                               ; preds = %29, %22
  %31 = getelementptr inbounds nuw i8, ptr %7, i64 24
  store ptr null, ptr %31, align 8
  %32 = getelementptr inbounds nuw i8, ptr %7, i64 160
  store ptr null, ptr %32, align 8
  br label %66, !llvm.loop !8

33:                                               ; preds = %18
  %34 = getelementptr inbounds nuw i8, ptr %7, i64 124
  %35 = load i32, ptr %34, align 4
  %36 = and i32 %35, 32
  %.not22 = icmp eq i32 %36, 0
  %.phi.trans.insert = getelementptr inbounds nuw i8, ptr %7, i64 40
  %.pre = load i32, ptr %.phi.trans.insert, align 8
  br i1 %.not22, label %._crit_edge30, label %37

37:                                               ; preds = %33
  %.not23 = icmp ne i32 %.pre, 0
  %38 = icmp eq i32 %20, 2
  %or.cond = and i1 %38, %.not23
  br i1 %or.cond, label %39, label %._crit_edge30

39:                                               ; preds = %37
  br i1 %0, label %40, label %44

40:                                               ; preds = %39
  %41 = call zeroext i1 @errstart_cold(i32 noundef 21, ptr noundef null) #9
  call void @llvm.assume(i1 %41)
  %42 = call i32 @errcode(i32 noundef 1088) #8
  %43 = call i32 (ptr, ...) @errmsg(ptr noundef nonnull @.str.18) #8
  call void @errfinish(ptr noundef nonnull @.str.3, i32 noundef 738, ptr noundef nonnull @__func__.PreCommit_Portals) #8
  unreachable

44:                                               ; preds = %39
  %45 = load ptr, ptr @TopPortalContext, align 8
  %46 = call ptr @AllocSetContextCreateInternal(ptr noundef %45, ptr noundef nonnull @.str.10, i64 noundef 0, i64 noundef 8192, i64 noundef 8388608) #8
  %47 = getelementptr inbounds nuw i8, ptr %7, i64 176
  store ptr %46, ptr %47, align 8
  %48 = load ptr, ptr @CurrentMemoryContext, align 8
  store ptr %46, ptr @CurrentMemoryContext, align 8
  %49 = load i32, ptr %34, align 4
  %50 = and i32 %49, 2
  %51 = icmp ne i32 %50, 0
  %52 = load i32, ptr @work_mem, align 4
  %53 = call ptr @tuplestore_begin_heap(i1 noundef zeroext %51, i1 noundef zeroext true, i32 noundef %52) #8
  %54 = getelementptr inbounds nuw i8, ptr %7, i64 168
  store ptr %53, ptr %54, align 8
  store ptr %48, ptr @CurrentMemoryContext, align 8
  call void @PersistHoldablePortal(ptr noundef nonnull %7) #8
  %55 = getelementptr inbounds nuw i8, ptr %7, i64 96
  %56 = load ptr, ptr %55, align 8
  %.not.i.i = icmp eq ptr %56, null
  br i1 %.not.i.i, label %HoldPortal.exit, label %57

57:                                               ; preds = %44
  call void @ReleaseCachedPlan(ptr noundef nonnull %56, ptr noundef null) #8
  %58 = getelementptr inbounds nuw i8, ptr %7, i64 88
  call void @llvm.memset.p0.i64(ptr noundef nonnull align 8 dereferenceable(16) %58, i8 0, i64 16, i1 false)
  br label %HoldPortal.exit

HoldPortal.exit:                                  ; preds = %44, %57
  %59 = getelementptr inbounds nuw i8, ptr %7, i64 24
  store ptr null, ptr %59, align 8
  store i32 0, ptr %.phi.trans.insert, align 8
  %60 = getelementptr inbounds nuw i8, ptr %7, i64 44
  store i32 0, ptr %60, align 4
  %61 = getelementptr inbounds nuw i8, ptr %7, i64 48
  store i32 0, ptr %61, align 8
  br label %64

._crit_edge30:                                    ; preds = %33, %37
  %62 = icmp eq i32 %.pre, 0
  br i1 %62, label %66, label %63, !llvm.loop !8

63:                                               ; preds = %._crit_edge30
  call void @PortalDrop(ptr noundef nonnull %7, i1 noundef zeroext true)
  br label %64

64:                                               ; preds = %63, %HoldPortal.exit
  call void @hash_seq_term(ptr noundef nonnull %2) #8
  %65 = load ptr, ptr @PortalHashTable, align 8
  call void @hash_seq_init(ptr noundef nonnull %2, ptr noundef %65) #8
  br label %66

66:                                               ; preds = %._crit_edge30, %64, %30
  %.1 = phi i1 [ %.029, %30 ], [ true, %64 ], [ %.029, %._crit_edge30 ]
  %67 = call ptr @hash_seq_search(ptr noundef nonnull %2) #8
  %.not = icmp eq ptr %67, null
  br i1 %.not, label %._crit_edge, label %.lr.ph

._crit_edge:                                      ; preds = %66, %1
  %.0.lcssa = phi i1 [ false, %1 ], [ %.1, %66 ]
  call void @llvm.lifetime.end.p0(i64 32, ptr nonnull %2) #8
  ret i1 %.0.lcssa
}